target datalayout = "e-m:e-p270:32:32-p271:32:32-p272:64:64-i64:64-i128:128-f80:128-n8:16:32:64-S128"
target triple = "x86_64-pc-linux-gnu"

%struct.uv_stat_t = type { i64, i64, i64, i64, i64, i64, i64, i64, i64, i64, i64, i64, %struct.uv_timespec_t, %struct.uv_timespec_t, %struct.uv_timespec_t, %struct.uv_timespec_t }
%struct.uv_timespec_t = type { i64, i64 }
%struct.uv_fs_poll_s = type { ptr, ptr, i32, ptr, [2 x ptr], %union.anon, ptr, i32, ptr }
%union.anon = type { [4 x ptr] }
%struct.poll_ctx = type { ptr, i32, i32, i64, ptr, ptr, %struct.uv_timer_s, %struct.uv_fs_s, %struct.uv_stat_t, ptr, [1 x i8] }
%struct.uv_timer_s = type { ptr, ptr, i32, ptr, [2 x ptr], %union.anon.5, ptr, i32, ptr, [3 x ptr], i64, i64, i64 }
%union.anon.5 = type { [4 x ptr] }
%struct.uv_fs_s = type { ptr, i32, [6 x ptr], i32, ptr, ptr, i64, ptr, ptr, %struct.uv_stat_t, ptr, i32, i32, i32, i32, ptr, i64, i32, i32, double, double, %struct.uv__work, [4 x %struct.uv_buf_t] }
%struct.uv__work = type { ptr, ptr, ptr, [2 x ptr] }
%struct.uv_buf_t = type { ptr, i64 }

; Function Attrs: nounwind uwtable
define dso_local i32 @uv_fs_poll_getpath(ptr noundef %0, ptr noundef %1, ptr noundef %2) #0 {
  %4 = alloca i32, align 4
  %5 = alloca ptr, align 8
  %6 = alloca ptr, align 8
  %7 = alloca ptr, align 8
  %8 = alloca ptr, align 8
  %9 = alloca i64, align 8
  %10 = alloca i32, align 4
  store ptr %0, ptr %5, align 8, !tbaa !9
  store ptr %1, ptr %6, align 8, !tbaa !21
  store ptr %2, ptr %7, align 8, !tbaa !63
  call void @llvm.lifetime.start.p0(i64 8, ptr %8) #6
  call void @llvm.lifetime.start.p0(i64 8, ptr %9) #6
  %11 = load ptr, ptr %5, align 8, !tbaa !9
  %12 = call i32 @uv_is_active(ptr noundef %11)
  %13 = icmp ne i32 %12, 0
  br i1 %13, label %16, label %14

14:                                               ; preds = %3
  %15 = load ptr, ptr %7, align 8, !tbaa !63
  store i64 0, ptr %15, align 8, !tbaa !25
  store i32 -22, ptr %4, align 4
  store i32 1, ptr %10, align 4
  br label %43

16:                                               ; preds = %3
  %17 = load ptr, ptr %5, align 8, !tbaa !9
  %18 = getelementptr inbounds nuw %struct.uv_fs_poll_s, ptr %17, i32 0, i32 8
  %19 = load ptr, ptr %18, align 8, !tbaa !19
  store ptr %19, ptr %8, align 8, !tbaa !27
  %20 = load ptr, ptr %8, align 8, !tbaa !27
  %21 = getelementptr inbounds nuw %struct.poll_ctx, ptr %20, i32 0, i32 10
  %22 = getelementptr inbounds [1 x i8], ptr %21, i64 0, i64 0
  %23 = call i64 @strlen(ptr noundef %22) #7
  store i64 %23, ptr %9, align 8, !tbaa !25
  %24 = load i64, ptr %9, align 8, !tbaa !25
  %25 = load ptr, ptr %7, align 8, !tbaa !63
  %26 = load i64, ptr %25, align 8, !tbaa !25
  %27 = icmp uge i64 %24, %26
  br i1 %27, label %28, label %32

28:                                               ; preds = %16
  %29 = load i64, ptr %9, align 8, !tbaa !25
  %30 = add i64 %29, 1
  %31 = load ptr, ptr %7, align 8, !tbaa !63
  store i64 %30, ptr %31, align 8, !tbaa !25
  store i32 -105, ptr %4, align 4
  store i32 1, ptr %10, align 4
  br label %43

32:                                               ; preds = %16
  %33 = load ptr, ptr %6, align 8, !tbaa !21
  %34 = load ptr, ptr %8, align 8, !tbaa !27
  %35 = getelementptr inbounds nuw %struct.poll_ctx, ptr %34, i32 0, i32 10
  %36 = getelementptr inbounds [1 x i8], ptr %35, i64 0, i64 0
  %37 = load i64, ptr %9, align 8, !tbaa !25
  call void @llvm.memcpy.p0.p0.i64(ptr align 1 %33, ptr align 8 %36, i64 %37, i1 false)
  %38 = load i64, ptr %9, align 8, !tbaa !25
  %39 = load ptr, ptr %7, align 8, !tbaa !63
  store i64 %38, ptr %39, align 8, !tbaa !25
  %40 = load ptr, ptr %6, align 8, !tbaa !21
  %41 = load i64, ptr %9, align 8, !tbaa !25
  %42 = getelementptr inbounds nuw i8, ptr %40, i64 %41
  store i8 0, ptr %42, align 1, !tbaa !65
  store i32 0, ptr %4, align 4
  store i32 1, ptr %10, align 4
  br label %43

43:                                               ; preds = %32, %28, %14
  call void @llvm.lifetime.end.p0(i64 8, ptr %9) #6
  call void @llvm.lifetime.end.p0(i64 8, ptr %8) #6
  %44 = load i32, ptr %4, align 4
  ret i32 %44
}