; Function Attrs: nounwind uwtable
define dso_local range(i32 -105, 1) i32 @uv_fs_poll_getpath(ptr noundef %0, ptr noundef writeonly captures(none) %1, ptr noundef captures(none) %2) local_unnamed_addr #1 {
  %4 = tail call i32 @uv_is_active(ptr noundef %0) #7
  %.not = icmp eq i32 %4, 0
  br i1 %.not, label %5, label %6

5:                                                ; preds = %3
  store i64 0, ptr %2, align 8, !tbaa !66
  br label %16

6:                                                ; preds = %3
  %7 = getelementptr inbounds nuw i8, ptr %0, i64 96
  %8 = load ptr, ptr %7, align 8, !tbaa !16
  %9 = getelementptr inbounds nuw i8, ptr %8, i64 800
  %10 = tail call i64 @strlen(ptr noundef nonnull dereferenceable(1) %9) #8
  %11 = load i64, ptr %2, align 8, !tbaa !66
  %.not16 = icmp ult i64 %10, %11
  br i1 %.not16, label %14, label %12

12:                                               ; preds = %6
  %13 = add i64 %10, 1
  store i64 %13, ptr %2, align 8, !tbaa !66
  br label %16

14:                                               ; preds = %6
  tail call void @llvm.memcpy.p0.p0.i64(ptr align 1 %1, ptr nonnull align 8 %9, i64 %10, i1 false)
  store i64 %10, ptr %2, align 8, !tbaa !66
  %15 = getelementptr inbounds nuw i8, ptr %1, i64 %10
  store i8 0, ptr %15, align 1, !tbaa !69
  br label %16

16:                                               ; preds = %14, %12, %5
  %.0 = phi i32 [ -105, %12 ], [ 0, %14 ], [ -22, %5 ]
  ret i32 %.0
}